target datalayout = "e-m:e-p270:32:32-p271:32:32-p272:64:64-i64:64-i128:128-f80:128-n8:16:32:64-S128"
target triple = "x86_64-unknown-linux-gnu"

%"struct.msdfgen::Vector2" = type { double, double }

@_ZN7msdfgen13LinearSegmentC1ENS_7Vector2ES1_NS_9EdgeColorE = dso_local unnamed_addr alias void (ptr, double, double, double, double, i32), ptr @_ZN7msdfgen13LinearSegmentC2ENS_7Vector2ES1_NS_9EdgeColorE

; Function Attrs: mustprogress uwtable
define dso_local noundef ptr @_ZN7msdfgen11EdgeSegment6createENS_7Vector2ES1_NS_9EdgeColorE(double %p0.coerce0, double %p0.coerce1, double %p1.coerce0, double %p1.coerce1, i32 noundef %edgeColor) #0 align 2 personality ptr @__gxx_personality_v0 {
entry:
  %p0 = alloca %"struct.msdfgen::Vector2", align 8
  %p1 = alloca %"struct.msdfgen::Vector2", align 8
  %edgeColor.addr = alloca i32, align 4
  %agg.tmp = alloca %"struct.msdfgen::Vector2", align 8
  %agg.tmp1 = alloca %"struct.msdfgen::Vector2", align 8
  %exn.slot = alloca ptr, align 8
  %ehselector.slot = alloca i32, align 4
  %0 = getelementptr inbounds { double, double }, ptr %p0, i32 0, i32 0
  store double %p0.coerce0, ptr %0, align 8
  %1 = getelementptr inbounds { double, double }, ptr %p0, i32 0, i32 1
  store double %p0.coerce1, ptr %1, align 8
  %2 = getelementptr inbounds { double, double }, ptr %p1, i32 0, i32 0
  store double %p1.coerce0, ptr %2, align 8
  %3 = getelementptr inbounds { double, double }, ptr %p1, i32 0, i32 1
  store double %p1.coerce1, ptr %3, align 8
  store i32 %edgeColor, ptr %edgeColor.addr, align 4
  %call = call noalias noundef nonnull ptr @_Znwm(i64 noundef 48) #9
  call void @llvm.memcpy.p0.p0.i64(ptr align 8 %agg.tmp, ptr align 8 %p0, i64 16, i1 false)
  call void @llvm.memcpy.p0.p0.i64(ptr align 8 %agg.tmp1, ptr align 8 %p1, i64 16, i1 false)
  %4 = load i32, ptr %edgeColor.addr, align 4
  %5 = getelementptr inbounds { double, double }, ptr %agg.tmp, i32 0, i32 0
  %6 = load double, ptr %5, align 8
  %7 = getelementptr inbounds { double, double }, ptr %agg.tmp, i32 0, i32 1
  %8 = load double, ptr %7, align 8
  %9 = getelementptr inbounds { double, double }, ptr %agg.tmp1, i32 0, i32 0
  %10 = load double, ptr %9, align 8
  %11 = getelementptr inbounds { double, double }, ptr %agg.tmp1, i32 0, i32 1
  %12 = load double, ptr %11, align 8
  invoke void @_ZN7msdfgen13LinearSegmentC1ENS_7Vector2ES1_NS_9EdgeColorE(ptr noundef nonnull align 8 dereferenceable(48) %call, double %6, double %8, double %10, double %12, i32 noundef %4)
          to label %invoke.cont unwind label %lpad

invoke.cont:                                      ; preds = %entry
  ret ptr %call

lpad:                                             ; preds = %entry
  %13 = landingpad { ptr, i32 }
          cleanup
  %14 = extractvalue { ptr, i32 } %13, 0
  store ptr %14, ptr %exn.slot, align 8
  %15 = extractvalue { ptr, i32 } %13, 1
  store i32 %15, ptr %ehselector.slot, align 4
  call void @_ZdlPv(ptr noundef %call) #10
  br label %eh.resume

eh.resume:                                        ; preds = %lpad
  %exn = load ptr, ptr %exn.slot, align 8
  %sel = load i32, ptr %ehselector.slot, align 4
  %lpad.val = insertvalue { ptr, i32 } poison, ptr %exn, 0
  %lpad.val2 = insertvalue { ptr, i32 } %lpad.val, i32 %sel, 1
  resume { ptr, i32 } %lpad.val2
}