; Function Attrs: mustprogress uwtable
define dso_local noalias noundef nonnull ptr @_ZN7msdfgen11EdgeSegment6createENS_7Vector2ES1_NS_9EdgeColorE(double %p0.coerce0, double %p0.coerce1, double %p1.coerce0, double %p1.coerce1, i32 noundef %edgeColor) local_unnamed_addr #0 align 2 personality ptr @__gxx_personality_v0 {
invoke.cont:
  %call = tail call noalias noundef nonnull dereferenceable(48) ptr @_Znwm(i64 noundef 48) #15
  %color.i.i = getelementptr inbounds i8, ptr %call, i64 8
  store i32 %edgeColor, ptr %color.i.i, align 8
  store ptr getelementptr inbounds ({ [18 x ptr] }, ptr @_ZTVN7msdfgen13LinearSegmentE, i64 0, i32 0, i64 2), ptr %call, align 8
  %scevgep.i = getelementptr inbounds i8, ptr %call, i64 16
  store double %p0.coerce0, ptr %scevgep.i, align 8
  %p0.sroa.2.0.arrayidx.sroa_idx.i = getelementptr inbounds i8, ptr %call, i64 24
  store double %p0.coerce1, ptr %p0.sroa.2.0.arrayidx.sroa_idx.i, align 8
  %arrayidx4.i = getelementptr inbounds i8, ptr %call, i64 32
  store double %p1.coerce0, ptr %arrayidx4.i, align 8
  %p1.sroa.2.0.arrayidx4.sroa_idx.i = getelementptr inbounds i8, ptr %call, i64 40
  store double %p1.coerce1, ptr %p1.sroa.2.0.arrayidx4.sroa_idx.i, align 8
  ret ptr %call
}